target datalayout = "e-m:e-p270:32:32-p271:32:32-p272:64:64-i64:64-i128:128-f80:128-n8:16:32:64-S128"
target triple = "x86_64-pc-linux-gnu"

; Function Attrs: null_pointer_is_valid sspstrong uwtable
define internal i32 @detect_add_path_prefix46(ptr noundef %0, i32 noundef %1, i32 noundef %2, i32 noundef %3) #0 {
  %5 = alloca i32, align 4
  %6 = alloca ptr, align 8
  %7 = alloca i32, align 4
  %8 = alloca i32, align 4
  %9 = alloca i32, align 4
  %10 = alloca i32, align 4
  %11 = alloca i8, align 1
  %12 = alloca i32, align 4
  %13 = alloca i32, align 4
  store ptr %0, ptr %6, align 8
  store i32 %1, ptr %7, align 4
  store i32 %2, ptr %8, align 4
  store i32 %3, ptr %9, align 4
  call void @llvm.lifetime.start.p0(i64 4, ptr %10) #6
  call void @llvm.lifetime.start.p0(i64 1, ptr %11) #6
  call void @llvm.lifetime.start.p0(i64 4, ptr %12) #6
  %14 = load i32, ptr %7, align 4
  %15 = add i32 %14, 4
  store i32 %15, ptr %12, align 4
  br label %16

16:                                               ; preds = %62, %4
  %17 = load i32, ptr %12, align 4
  %18 = load i32, ptr %8, align 4
  %19 = icmp slt i32 %17, %18
  br i1 %19, label %20, label %65

20:                                               ; preds = %16
  %21 = load ptr, ptr %6, align 8
  %22 = load i32, ptr %12, align 4
  %23 = call zeroext i8 @tvb_get_uint8(ptr noundef %21, i32 noundef %22)
  store i8 %23, ptr %11, align 1
  %24 = load i8, ptr %11, align 1
  %25 = zext i8 %24 to i32
  %26 = load i32, ptr %9, align 4
  %27 = icmp sgt i32 %25, %26
  br i1 %27, label %28, label %29

28:                                               ; preds = %20
  store i32 0, ptr %5, align 4
  store i32 1, ptr %13, align 4
  br label %124

29:                                               ; preds = %20
  %30 = load i8, ptr %11, align 1
  %31 = zext i8 %30 to i32
  %32 = add i32 %31, 7
  %33 = sdiv i32 %32, 8
  store i32 %33, ptr %10, align 4
  %34 = load i32, ptr %10, align 4
  %35 = add i32 1, %34
  %36 = load i32, ptr %12, align 4
  %37 = add i32 %36, %35
  store i32 %37, ptr %12, align 4
  %38 = load i32, ptr %12, align 4
  %39 = load i32, ptr %8, align 4
  %40 = icmp sgt i32 %38, %39
  br i1 %40, label %41, label %42

41:                                               ; preds = %29
  store i32 0, ptr %5, align 4
  store i32 1, ptr %13, align 4
  br label %124

42:                                               ; preds = %29
  %43 = load i8, ptr %11, align 1
  %44 = zext i8 %43 to i32
  %45 = srem i32 %44, 8
  %46 = icmp ne i32 %45, 0
  br i1 %46, label %47, label %61

47:                                               ; preds = %42
  %48 = load ptr, ptr %6, align 8
  %49 = load i32, ptr %12, align 4
  %50 = sub i32 %49, 1
  %51 = call zeroext i8 @tvb_get_uint8(ptr noundef %48, i32 noundef %50)
  %52 = zext i8 %51 to i32
  %53 = load i8, ptr %11, align 1
  %54 = zext i8 %53 to i32
  %55 = srem i32 %54, 8
  %56 = ashr i32 255, %55
  %57 = and i32 %52, %56
  %58 = icmp ne i32 %57, 0
  br i1 %58, label %59, label %60

59:                                               ; preds = %47
  store i32 0, ptr %5, align 4
  store i32 1, ptr %13, align 4
  br label %124

60:                                               ; preds = %47
  br label %61

61:                                               ; preds = %60, %42
  br label %62

62:                                               ; preds = %61
  %63 = load i32, ptr %12, align 4
  %64 = add i32 %63, 4
  store i32 %64, ptr %12, align 4
  br label %16, !llvm.loop !54

65:                                               ; preds = %16
  %66 = load i32, ptr %7, align 4
  store i32 %66, ptr %12, align 4
  br label %67

67:                                               ; preds = %122, %65
  %68 = load i32, ptr %12, align 4
  %69 = load i32, ptr %8, align 4
  %70 = icmp slt i32 %68, %69
  br i1 %70, label %71, label %123

71:                                               ; preds = %67
  %72 = load ptr, ptr %6, align 8
  %73 = load i32, ptr %12, align 4
  %74 = call zeroext i8 @tvb_get_uint8(ptr noundef %72, i32 noundef %73)
  store i8 %74, ptr %11, align 1
  %75 = load i8, ptr %11, align 1
  %76 = zext i8 %75 to i32
  %77 = icmp eq i32 %76, 0
  br i1 %77, label %78, label %84

78:                                               ; preds = %71
  %79 = load i32, ptr %8, align 4
  %80 = load i32, ptr %7, align 4
  %81 = sub i32 %79, %80
  %82 = icmp sgt i32 %81, 1
  br i1 %82, label %83, label %84

83:                                               ; preds = %78
  store i32 1, ptr %5, align 4
  store i32 1, ptr %13, align 4
  br label %124

84:                                               ; preds = %78, %71
  %85 = load i8, ptr %11, align 1
  %86 = zext i8 %85 to i32
  %87 = load i32, ptr %9, align 4
  %88 = icmp sgt i32 %86, %87
  br i1 %88, label %89, label %90

89:                                               ; preds = %84
  store i32 1, ptr %5, align 4
  store i32 1, ptr %13, align 4
  br label %124

90:                                               ; preds = %84
  %91 = load i8, ptr %11, align 1
  %92 = zext i8 %91 to i32
  %93 = add i32 %92, 7
  %94 = sdiv i32 %93, 8
  store i32 %94, ptr %10, align 4
  %95 = load i32, ptr %10, align 4
  %96 = add i32 1, %95
  %97 = load i32, ptr %12, align 4
  %98 = add i32 %97, %96
  store i32 %98, ptr %12, align 4
  %99 = load i32, ptr %12, align 4
  %100 = load i32, ptr %8, align 4
  %101 = icmp sgt i32 %99, %100
  br i1 %101, label %102, label %103

102:                                              ; preds = %90
  store i32 1, ptr %5, align 4
  store i32 1, ptr %13, align 4
  br label %124

103:                                              ; preds = %90
  %104 = load i8, ptr %11, align 1
  %105 = zext i8 %104 to i32
  %106 = srem i32 %105, 8
  %107 = icmp ne i32 %106, 0
  br i1 %107, label %108, label %122

108:                                              ; preds = %103
  %109 = load ptr, ptr %6, align 8
  %110 = load i32, ptr %12, align 4
  %111 = sub i32 %110, 1
  %112 = call zeroext i8 @tvb_get_uint8(ptr noundef %109, i32 noundef %111)
  %113 = zext i8 %112 to i32
  %114 = load i8, ptr %11, align 1
  %115 = zext i8 %114 to i32
  %116 = srem i32 %115, 8
  %117 = ashr i32 255, %116
  %118 = and i32 %113, %117
  %119 = icmp ne i32 %118, 0
  br i1 %119, label %120, label %121

120:                                              ; preds = %108
  store i32 1, ptr %5, align 4
  store i32 1, ptr %13, align 4
  br label %124

121:                                              ; preds = %108
  br label %122

122:                                              ; preds = %121, %103
  br label %67, !llvm.loop !55

123:                                              ; preds = %67
  store i32 0, ptr %5, align 4
  store i32 1, ptr %13, align 4
  br label %124

124:                                              ; preds = %123, %120, %102, %89, %83, %59, %41, %28
  call void @llvm.lifetime.end.p0(i64 4, ptr %12) #6
  call void @llvm.lifetime.end.p0(i64 1, ptr %11) #6
  call void @llvm.lifetime.end.p0(i64 4, ptr %10) #6
  %125 = load i32, ptr %5, align 4
  ret i32 %125
}