; Function Attrs: null_pointer_is_valid sspstrong uwtable
define internal fastcc range(i32 0, 2) i32 @detect_add_path_prefix46(ptr noundef %0, i32 noundef %1, i32 noundef %2, i32 noundef range(i32 32, 256) %3) unnamed_addr #0 {
  %.051 = add i32 %1, 4
  %5 = icmp slt i32 %.051, %2
  br i1 %5, label %.lr.ph, label %.preheader

.preheader:                                       ; preds = %26, %4
  %6 = icmp slt i32 %1, %2
  br i1 %6, label %.lr.ph54, label %.loopexit

.lr.ph54:                                         ; preds = %.preheader
  %7 = sub i32 %2, %1
  %8 = icmp sgt i32 %7, 1
  br label %28

.lr.ph:                                           ; preds = %4, %26
  %.052 = phi i32 [ %.0, %26 ], [ %.051, %4 ]
  %9 = tail call zeroext i8 @tvb_get_uint8(ptr noundef %0, i32 noundef %.052)
  %10 = zext i8 %9 to i32
  %11 = icmp samesign ult i32 %3, %10
  br i1 %11, label %.loopexit, label %12

12:                                               ; preds = %.lr.ph
  %13 = add nuw nsw i32 %10, 7
  %14 = lshr i32 %13, 3
  %15 = add nsw i32 %.052, 1
  %16 = add i32 %15, %14
  %17 = icmp sgt i32 %16, %2
  br i1 %17, label %.loopexit, label %18

18:                                               ; preds = %12
  %19 = and i32 %10, 7
  %.not46 = icmp eq i32 %19, 0
  br i1 %.not46, label %26, label %20

20:                                               ; preds = %18
  %21 = add i32 %14, %.052
  %22 = tail call zeroext i8 @tvb_get_uint8(ptr noundef %0, i32 noundef %21)
  %23 = zext i8 %22 to i32
  %24 = lshr i32 255, %19
  %25 = and i32 %24, %23
  %.not47 = icmp eq i32 %25, 0
  br i1 %.not47, label %26, label %.loopexit

26:                                               ; preds = %18, %20
  %.0 = add i32 %16, 4
  %27 = icmp slt i32 %.0, %2
  br i1 %27, label %.lr.ph, label %.preheader, !llvm.loop !66

28:                                               ; preds = %.lr.ph54, %47
  %.153 = phi i32 [ %1, %.lr.ph54 ], [ %37, %47 ]
  %29 = tail call zeroext i8 @tvb_get_uint8(ptr noundef %0, i32 noundef %.153)
  %30 = zext i8 %29 to i32
  %31 = icmp eq i8 %29, 0
  %or.cond = and i1 %8, %31
  %32 = icmp samesign ult i32 %3, %30
  %or.cond49 = select i1 %or.cond, i1 true, i1 %32
  br i1 %or.cond49, label %.loopexit, label %33

33:                                               ; preds = %28
  %34 = add nuw nsw i32 %30, 7
  %35 = lshr i32 %34, 3
  %36 = add nsw i32 %.153, 1
  %37 = add i32 %36, %35
  %38 = icmp sgt i32 %37, %2
  br i1 %38, label %.loopexit, label %39

39:                                               ; preds = %33
  %40 = and i32 %30, 7
  %.not = icmp eq i32 %40, 0
  br i1 %.not, label %47, label %41

41:                                               ; preds = %39
  %42 = add i32 %35, %.153
  %43 = tail call zeroext i8 @tvb_get_uint8(ptr noundef %0, i32 noundef %42)
  %44 = zext i8 %43 to i32
  %45 = lshr i32 255, %40
  %46 = and i32 %45, %44
  %.not45 = icmp eq i32 %46, 0
  br i1 %.not45, label %47, label %.loopexit

47:                                               ; preds = %41, %39
  %48 = icmp slt i32 %37, %2
  br i1 %48, label %28, label %.loopexit, !llvm.loop !67

.loopexit:                                        ; preds = %20, %12, %.lr.ph, %28, %33, %41, %47, %.preheader
  %.036 = phi i32 [ 0, %.preheader ], [ 1, %28 ], [ 1, %33 ], [ 1, %41 ], [ 0, %47 ], [ 0, %.lr.ph ], [ 0, %12 ], [ 0, %20 ]
  ret i32 %.036
}